target datalayout = "e-m:e-p270:32:32-p271:32:32-p272:64:64-i64:64-i128:128-f80:128-n8:16:32:64-S128"
target triple = "x86_64-unknown-linux-gnu"

%"class.OpenColorIO_v2_4dev::SystemMonitorsImpl" = type { %"class.OpenColorIO_v2_4dev::SystemMonitors", %"class.std::vector" }
%"class.OpenColorIO_v2_4dev::SystemMonitors" = type { ptr }
%"class.std::vector" = type { %"struct.std::_Vector_base" }
%"struct.std::_Vector_base" = type { %"struct.std::_Vector_base<OpenColorIO_v2_4dev::SystemMonitorsImpl::MonitorInfo, std::allocator<OpenColorIO_v2_4dev::SystemMonitorsImpl::MonitorInfo>>::_Vector_impl" }
%"struct.std::_Vector_base<OpenColorIO_v2_4dev::SystemMonitorsImpl::MonitorInfo, std::allocator<OpenColorIO_v2_4dev::SystemMonitorsImpl::MonitorInfo>>::_Vector_impl" = type { %"struct.std::_Vector_base<OpenColorIO_v2_4dev::SystemMonitorsImpl::MonitorInfo, std::allocator<OpenColorIO_v2_4dev::SystemMonitorsImpl::MonitorInfo>>::_Vector_impl_data" }
%"struct.std::_Vector_base<OpenColorIO_v2_4dev::SystemMonitorsImpl::MonitorInfo, std::allocator<OpenColorIO_v2_4dev::SystemMonitorsImpl::MonitorInfo>>::_Vector_impl_data" = type { ptr, ptr, ptr }

; Function Attrs: mustprogress nounwind uwtable
define linkonce_odr hidden noundef i64 @_ZNKSt6vectorIN19OpenColorIO_v2_4dev18SystemMonitorsImpl11MonitorInfoESaIS2_EE4sizeEv(ptr noundef nonnull align 8 dereferenceable(24) %this) #0 comdat align 2 {
entry:
  %this.addr = alloca ptr, align 8
  store ptr %this, ptr %this.addr, align 8
  %this1 = load ptr, ptr %this.addr, align 8
  %_M_impl = getelementptr inbounds %"struct.std::_Vector_base", ptr %this1, i32 0, i32 0
  %_M_finish = getelementptr inbounds %"struct.std::_Vector_base<OpenColorIO_v2_4dev::SystemMonitorsImpl::MonitorInfo, std::allocator<OpenColorIO_v2_4dev::SystemMonitorsImpl::MonitorInfo>>::_Vector_impl_data", ptr %_M_impl, i32 0, i32 1
  %0 = load ptr, ptr %_M_finish, align 8
  %_M_impl2 = getelementptr inbounds %"struct.std::_Vector_base", ptr %this1, i32 0, i32 0
  %_M_start = getelementptr inbounds %"struct.std::_Vector_base<OpenColorIO_v2_4dev::SystemMonitorsImpl::MonitorInfo, std::allocator<OpenColorIO_v2_4dev::SystemMonitorsImpl::MonitorInfo>>::_Vector_impl_data", ptr %_M_impl2, i32 0, i32 0
  %1 = load ptr, ptr %_M_start, align 8
  %sub.ptr.lhs.cast = ptrtoint ptr %0 to i64
  %sub.ptr.rhs.cast = ptrtoint ptr %1 to i64
  %sub.ptr.sub = sub i64 %sub.ptr.lhs.cast, %sub.ptr.rhs.cast
  %sub.ptr.div = sdiv exact i64 %sub.ptr.sub, 64
  ret i64 %sub.ptr.div
}

; Function Attrs: mustprogress nounwind uwtable
define hidden noundef zeroext i1 @_ZNK19OpenColorIO_v2_4dev18SystemMonitorsImpl11isSupportedEv(ptr noundef nonnull align 8 dereferenceable(32) %this) unnamed_addr #0 align 2 {
entry:
  %this.addr = alloca ptr, align 8
  store ptr %this, ptr %this.addr, align 8
  %this1 = load ptr, ptr %this.addr, align 8
  %m_monitors = getelementptr inbounds %"class.OpenColorIO_v2_4dev::SystemMonitorsImpl", ptr %this1, i32 0, i32 1
  %call = call noundef i64 @_ZNKSt6vectorIN19OpenColorIO_v2_4dev18SystemMonitorsImpl11MonitorInfoESaIS2_EE4sizeEv(ptr noundef nonnull align 8 dereferenceable(24) %m_monitors) #1
  %cmp = icmp ne i64 %call, 0
  ret i1 %cmp
}